; Function Attrs: mustprogress uwtable
define hidden void @_ZN6recfun4decl6pluginC2Ev(ptr noundef nonnull align 8 dereferenceable(81) %this) unnamed_addr #3 align 2 personality ptr @__gxx_personality_v0 {
entry:
  %m_manager.i = getelementptr inbounds i8, ptr %this, i64 8
  store ptr null, ptr %m_manager.i, align 8
  %m_family_id.i = getelementptr inbounds i8, ptr %this, i64 16
  store i32 -1, ptr %m_family_id.i, align 8
  store ptr getelementptr inbounds ({ [23 x ptr] }, ptr @_ZTVN6recfun4decl6pluginE, i64 0, i32 0, i64 2), ptr %this, align 8
  %m_util = getelementptr inbounds i8, ptr %this, i64 24
  store ptr null, ptr %m_util, align 8
  %m_defs = getelementptr inbounds i8, ptr %this, i64 32
  %call.i.i.i.i2 = invoke noalias noundef ptr @_ZN6memory8allocateEm(i64 noundef 128)
          to label %invoke.cont3 unwind label %lpad2

invoke.cont3:                                     ; preds = %entry
  tail call void @llvm.memset.p0.i64(ptr noundef nonnull align 8 dereferenceable(128) %call.i.i.i.i2, i8 0, i64 128, i1 false)
  store ptr %call.i.i.i.i2, ptr %m_defs, align 8
  %m_capacity.i.i = getelementptr inbounds i8, ptr %this, i64 40
  store i32 8, ptr %m_capacity.i.i, align 8
  %m_size.i.i = getelementptr inbounds i8, ptr %this, i64 44
  store i32 0, ptr %m_size.i.i, align 4
  %m_num_deleted.i.i = getelementptr inbounds i8, ptr %this, i64 48
  store i32 0, ptr %m_num_deleted.i.i, align 8
  %call.i.i.i.i6 = invoke noalias noundef ptr @_ZN6memory8allocateEm(i64 noundef 128)
          to label %invoke.cont5 unwind label %lpad4

invoke.cont5:                                     ; preds = %invoke.cont3
  %m_case_defs = getelementptr inbounds i8, ptr %this, i64 56
  tail call void @llvm.memset.p0.i64(ptr noundef nonnull align 8 dereferenceable(128) %call.i.i.i.i6, i8 0, i64 128, i1 false)
  store ptr %call.i.i.i.i6, ptr %m_case_defs, align 8
  %m_capacity.i.i3 = getelementptr inbounds i8, ptr %this, i64 64
  store i32 8, ptr %m_capacity.i.i3, align 8
  %m_size.i.i4 = getelementptr inbounds i8, ptr %this, i64 68
  store i32 0, ptr %m_size.i.i4, align 4
  %m_num_deleted.i.i5 = getelementptr inbounds i8, ptr %this, i64 72
  store i32 0, ptr %m_num_deleted.i.i5, align 8
  %m_has_rec_defs = getelementptr inbounds i8, ptr %this, i64 80
  store i8 0, ptr %m_has_rec_defs, align 8
  ret void

lpad2:                                            ; preds = %entry
  %0 = landingpad { ptr, i32 }
          cleanup
  br label %ehcleanup

lpad4:                                            ; preds = %invoke.cont3
  %1 = landingpad { ptr, i32 }
          cleanup
  tail call void @_ZN7obj_mapI9func_declPN6recfun3defEED2Ev(ptr noundef nonnull align 8 dereferenceable(24) %m_defs) #21
  br label %ehcleanup

ehcleanup:                                        ; preds = %lpad4, %lpad2
  %.pn = phi { ptr, i32 } [ %1, %lpad4 ], [ %0, %lpad2 ]
  tail call void @_ZN10scoped_ptrIN6recfun4utilEED2Ev(ptr noundef nonnull align 8 dereferenceable(8) %m_util) #21
  resume { ptr, i32 } %.pn
}